; ModuleID = 'source-C-CXX/61/2136.c'
source_filename = "source-C-CXX/61/2136.c"
target datalayout = "e-m:e-p270:32:32-p271:32:32-p272:64:64-i64:64-f80:128-n8:16:32:64-S128"
target triple = "x86_64-pc-linux-gnu"

; Function Attrs: nounwind sspstrong uwtable
define dso_local i32 @main() local_unnamed_addr #0 {
  %1 = alloca [500 x i8], align 16
  %2 = getelementptr inbounds [500 x i8], [500 x i8]* %1, i64 0, i64 0
  call void @llvm.lifetime.start.p0i8(i64 500, i8* nonnull %2) #4
  %3 = call i32 (i8*, ...) bitcast (i32 (...)* @gets to i32 (i8*, ...)*)(i8* nonnull %2) #4
  %4 = load i8, i8* %2, align 16, !tbaa !5
  %5 = icmp eq i8 %4, 0
  br i1 %5, label %28, label %6

6:                                                ; preds = %0, %19
  %7 = phi i8 [ %26, %19 ], [ %4, %0 ]
  %8 = phi i32 [ %23, %19 ], [ 0, %0 ]
  %9 = sext i32 %8 to i64
  br label %10

10:                                               ; preds = %6, %14
  %11 = phi i8 [ %7, %6 ], [ 32, %14 ]
  %12 = phi i64 [ %9, %6 ], [ %15, %14 ]
  %13 = icmp eq i8 %11, 32
  br i1 %13, label %14, label %19

14:                                               ; preds = %10
  %15 = add i64 %12, 1
  %16 = getelementptr inbounds [500 x i8], [500 x i8]* %1, i64 0, i64 %15
  %17 = load i8, i8* %16, align 1, !tbaa !5
  %18 = icmp eq i8 %17, 32
  br i1 %18, label %10, label %19, !llvm.loop !8

19:                                               ; preds = %10, %14
  %20 = trunc i64 %12 to i32
  %21 = sext i8 %11 to i32
  %22 = call i32 @putchar(i32 %21)
  %23 = add nsw i32 %20, 1
  %24 = sext i32 %23 to i64
  %25 = getelementptr inbounds [500 x i8], [500 x i8]* %1, i64 0, i64 %24
  %26 = load i8, i8* %25, align 1, !tbaa !5
  %27 = icmp eq i8 %26, 0
  br i1 %27, label %28, label %6, !llvm.loop !10

28:                                               ; preds = %19, %0
  call void @llvm.lifetime.end.p0i8(i64 500, i8* nonnull %2) #4
  ret i32 0
}

; Function Attrs: argmemonly mustprogress nofree nosync nounwind willreturn
declare void @llvm.lifetime.start.p0i8(i64 immarg, i8* nocapture) #1

declare i32 @gets(...) local_unnamed_addr #2

; Function Attrs: argmemonly mustprogress nofree nosync nounwind willreturn
declare void @llvm.lifetime.end.p0i8(i64 immarg, i8* nocapture) #1

; Function Attrs: nofree nounwind
declare noundef i32 @putchar(i32 noundef) local_unnamed_addr #3


!llvm.module.flags = !{!0, !1, !2, !3}
!llvm.ident = !{!4}

!0 = !{i32 1, !"wchar_size", i32 4}
!1 = !{i32 7, !"PIC Level", i32 2}
!2 = !{i32 7, !"PIE Level", i32 2}
!3 = !{i32 7, !"uwtable", i32 1}
!4 = !{!"clang version 13.0.0"}
!5 = !{!6, !6, i64 0}
!6 = !{!"omnipotent char", !7, i64 0}
!7 = !{!"Simple C/C++ TBAA"}
!8 = distinct !{!8, !9}
!9 = !{!"llvm.loop.mustprogress"}
!10 = distinct !{!10, !9}
